target datalayout = "e-m:e-p270:32:32-p271:32:32-p272:64:64-i64:64-i128:128-f80:128-n8:16:32:64-S128"
target triple = "x86_64-pc-linux-gnu"

%struct._address = type { i32, i32, ptr, ptr }
%struct._packet_info = type { ptr, ptr, i32, i32, %struct.nstime_t, %struct.nstime_t, %struct.nstime_t, i8, ptr, ptr, ptr, ptr, %struct._address, %struct._address, %struct._address, %struct._address, %struct._address, %struct._address, i32, ptr, i8, [3 x i8], %struct.anon, i32, i32, i32, i32, ptr, i8, ptr, ptr, i16, i16, i32, i32, i16, i32, i32, ptr, ptr, ptr, i8, i8, i16, i16, i16, i32, i16, i16, ptr, ptr, ptr, ptr, ptr, i32, i32 }
%struct.nstime_t = type { i64, i32 }
%struct.anon = type { i8, [3 x i8] }
%struct.interface_description = type { i32, i32, i64, i64 }
%struct._proto_node = type { ptr, ptr, ptr, ptr, ptr, ptr, ptr }
%struct.field_info = type { ptr, i32, i32, i32, i32, i32, i32, ptr, ptr, ptr, i32, i32 }

@hf_pcapng_timestamp_high = internal global i32 0, align 4
@hf_pcapng_timestamp_low = internal global i32 0, align 4
@hf_pcapng_timestamp = internal global i32 0, align 4

; Function Attrs: inlinehint nounwind null_pointer_is_valid sspstrong uwtable
define internal void @proto_item_set_generated(ptr noundef %0) #8 {
  %2 = alloca ptr, align 8
  store ptr %0, ptr %2, align 8
  %3 = load ptr, ptr %2, align 8
  %4 = icmp ne ptr %3, null
  br i1 %4, label %5, label %24

5:                                                ; preds = %1
  br label %6

6:                                                ; preds = %5
  %7 = load ptr, ptr %2, align 8
  %8 = getelementptr inbounds nuw %struct._proto_node, ptr %7, i32 0, i32 5
  %9 = load ptr, ptr %8, align 8
  %10 = icmp ne ptr %9, null
  br i1 %10, label %11, label %22

11:                                               ; preds = %6
  %12 = load ptr, ptr %2, align 8
  %13 = getelementptr inbounds nuw %struct._proto_node, ptr %12, i32 0, i32 5
  %14 = load ptr, ptr %13, align 8
  %15 = getelementptr inbounds nuw %struct.field_info, ptr %14, i32 0, i32 6
  %16 = load i32, ptr %15, align 4
  %17 = or i32 %16, 2
  %18 = load ptr, ptr %2, align 8
  %19 = getelementptr inbounds nuw %struct._proto_node, ptr %18, i32 0, i32 5
  %20 = load ptr, ptr %19, align 8
  %21 = getelementptr inbounds nuw %struct.field_info, ptr %20, i32 0, i32 6
  store i32 %17, ptr %21, align 4
  br label %22

22:                                               ; preds = %11, %6
  br label %23

23:                                               ; preds = %22
  br label %24

24:                                               ; preds = %23, %1
  ret void
}

; Function Attrs: null_pointer_is_valid sspstrong uwtable
define internal void @pcapng_add_timestamp(ptr noundef %0, ptr noundef %1, ptr noundef %2, i32 noundef %3, i32 noundef %4, ptr noundef %5) #0 {
  %7 = alloca ptr, align 8
  %8 = alloca ptr, align 8
  %9 = alloca ptr, align 8
  %10 = alloca i32, align 4
  %11 = alloca i32, align 4
  %12 = alloca ptr, align 8
  %13 = alloca %struct.nstime_t, align 8
  %14 = alloca i64, align 8
  %15 = alloca ptr, align 8
  store ptr %0, ptr %7, align 8
  store ptr %1, ptr %8, align 8
  store ptr %2, ptr %9, align 8
  store i32 %3, ptr %10, align 4
  store i32 %4, ptr %11, align 4
  store ptr %5, ptr %12, align 8
  %16 = load ptr, ptr %7, align 8
  %17 = load i32, ptr @hf_pcapng_timestamp_high, align 4
  %18 = load ptr, ptr %9, align 8
  %19 = load i32, ptr %10, align 4
  %20 = load i32, ptr %11, align 4
  %21 = call ptr @proto_tree_add_item(ptr noundef %16, i32 noundef %17, ptr noundef %18, i32 noundef %19, i32 noundef 4, i32 noundef %20)
  %22 = load ptr, ptr %7, align 8
  %23 = load i32, ptr @hf_pcapng_timestamp_low, align 4
  %24 = load ptr, ptr %9, align 8
  %25 = load i32, ptr %10, align 4
  %26 = add i32 %25, 4
  %27 = load i32, ptr %11, align 4
  %28 = call ptr @proto_tree_add_item(ptr noundef %22, i32 noundef %23, ptr noundef %24, i32 noundef %26, i32 noundef 4, i32 noundef %27)
  %29 = load ptr, ptr %12, align 8
  %30 = icmp ne ptr %29, null
  br i1 %30, label %31, label %87

31:                                               ; preds = %6
  call void @llvm.lifetime.start.p0(i64 16, ptr %13) #14
  call void @llvm.lifetime.start.p0(i64 8, ptr %14) #14
  call void @llvm.lifetime.start.p0(i64 8, ptr %15) #14
  %32 = load ptr, ptr %9, align 8
  %33 = load i32, ptr %10, align 4
  %34 = load i32, ptr %11, align 4
  %35 = call i32 @tvb_get_uint32(ptr noundef %32, i32 noundef %33, i32 noundef %34)
  %36 = zext i32 %35 to i64
  %37 = shl i64 %36, 32
  %38 = load ptr, ptr %9, align 8
  %39 = load i32, ptr %10, align 4
  %40 = add i32 %39, 4
  %41 = load i32, ptr %11, align 4
  %42 = call i32 @tvb_get_uint32(ptr noundef %38, i32 noundef %40, i32 noundef %41)
  %43 = zext i32 %42 to i64
  %44 = or i64 %37, %43
  store i64 %44, ptr %14, align 8
  %45 = load ptr, ptr %12, align 8
  %46 = getelementptr inbounds nuw %struct.interface_description, ptr %45, i32 0, i32 3
  %47 = load i64, ptr %46, align 8
  %48 = load i64, ptr %14, align 8
  %49 = add i64 %48, %47
  store i64 %49, ptr %14, align 8
  %50 = load ptr, ptr %12, align 8
  %51 = getelementptr inbounds nuw %struct.interface_description, ptr %50, i32 0, i32 2
  %52 = load i64, ptr %51, align 8
  %53 = icmp eq i64 %52, 0
  br i1 %53, label %54, label %59

54:                                               ; preds = %31
  %55 = load ptr, ptr %8, align 8
  %56 = getelementptr inbounds nuw %struct._packet_info, ptr %55, i32 0, i32 2
  %57 = load i32, ptr %56, align 8
  %58 = and i32 %57, -2
  store i32 %58, ptr %56, align 8
  br label %86

59:                                               ; preds = %31
  %60 = load i64, ptr %14, align 8
  %61 = load ptr, ptr %12, align 8
  %62 = getelementptr inbounds nuw %struct.interface_description, ptr %61, i32 0, i32 2
  %63 = load i64, ptr %62, align 8
  %64 = udiv i64 %60, %63
  %65 = getelementptr inbounds nuw %struct.nstime_t, ptr %13, i32 0, i32 0
  store i64 %64, ptr %65, align 8
  %66 = load i64, ptr %14, align 8
  %67 = load ptr, ptr %12, align 8
  %68 = getelementptr inbounds nuw %struct.interface_description, ptr %67, i32 0, i32 2
  %69 = load i64, ptr %68, align 8
  %70 = urem i64 %66, %69
  %71 = mul i64 %70, 1000000000
  %72 = load ptr, ptr %12, align 8
  %73 = getelementptr inbounds nuw %struct.interface_description, ptr %72, i32 0, i32 2
  %74 = load i64, ptr %73, align 8
  %75 = udiv i64 %71, %74
  %76 = trunc i64 %75 to i32
  %77 = getelementptr inbounds nuw %struct.nstime_t, ptr %13, i32 0, i32 1
  store i32 %76, ptr %77, align 8
  %78 = load ptr, ptr %7, align 8
  %79 = load i32, ptr @hf_pcapng_timestamp, align 4
  %80 = load ptr, ptr %9, align 8
  %81 = load i32, ptr %10, align 4
  %82 = call ptr @proto_tree_add_time(ptr noundef %78, i32 noundef %79, ptr noundef %80, i32 noundef %81, i32 noundef 8, ptr noundef %13)
  store ptr %82, ptr %15, align 8
  %83 = load ptr, ptr %15, align 8
  call void @proto_item_set_generated(ptr noundef %83)
  %84 = load ptr, ptr %8, align 8
  %85 = getelementptr inbounds nuw %struct._packet_info, ptr %84, i32 0, i32 4
  call void @llvm.memcpy.p0.p0.i64(ptr align 8 %85, ptr align 8 %13, i64 16, i1 false)
  br label %86

86:                                               ; preds = %59, %54
  call void @llvm.lifetime.end.p0(i64 8, ptr %15) #14
  call void @llvm.lifetime.end.p0(i64 8, ptr %14) #14
  call void @llvm.lifetime.end.p0(i64 16, ptr %13) #14
  br label %87

87:                                               ; preds = %86, %6
  ret void
}