; Function Attrs: null_pointer_is_valid sspstrong uwtable
define internal fastcc void @pcapng_add_timestamp(ptr noundef %0, ptr noundef captures(none) %1, ptr noundef %2, i32 noundef %3, i32 noundef %4, ptr noundef readonly captures(address_is_null) %5) unnamed_addr #0 {
  %7 = alloca %struct.nstime_t, align 8
  %8 = load i32, ptr @hf_pcapng_timestamp_high, align 4
  %9 = tail call ptr @proto_tree_add_item(ptr noundef %0, i32 noundef %8, ptr noundef %2, i32 noundef %3, i32 noundef 4, i32 noundef %4)
  %10 = load i32, ptr @hf_pcapng_timestamp_low, align 4
  %11 = add i32 %3, 4
  %12 = tail call ptr @proto_tree_add_item(ptr noundef %0, i32 noundef %10, ptr noundef %2, i32 noundef %11, i32 noundef 4, i32 noundef %4)
  %.not = icmp eq ptr %5, null
  br i1 %.not, label %48, label %13

13:                                               ; preds = %6
  call void @llvm.lifetime.start.p0(i64 16, ptr nonnull %7) #9
  %14 = tail call i32 @tvb_get_uint32(ptr noundef %2, i32 noundef %3, i32 noundef %4)
  %15 = tail call i32 @tvb_get_uint32(ptr noundef %2, i32 noundef %11, i32 noundef %4)
  %16 = getelementptr inbounds nuw i8, ptr %5, i64 8
  %17 = load i64, ptr %16, align 8
  %18 = icmp eq i64 %17, 0
  br i1 %18, label %19, label %23

19:                                               ; preds = %13
  %20 = getelementptr inbounds nuw i8, ptr %1, i64 16
  %21 = load i32, ptr %20, align 8
  %22 = and i32 %21, -2
  store i32 %22, ptr %20, align 8
  br label %47

23:                                               ; preds = %13
  %24 = zext i32 %14 to i64
  %25 = shl nuw i64 %24, 32
  %26 = zext i32 %15 to i64
  %27 = or disjoint i64 %25, %26
  %28 = getelementptr inbounds nuw i8, ptr %5, i64 16
  %29 = load i64, ptr %28, align 8
  %30 = add i64 %27, %29
  %31 = udiv i64 %30, %17
  store i64 %31, ptr %7, align 8
  %32 = urem i64 %30, %17
  %33 = mul i64 %32, 1000000000
  %34 = udiv i64 %33, %17
  %35 = trunc i64 %34 to i32
  %36 = getelementptr inbounds nuw i8, ptr %7, i64 8
  store i32 %35, ptr %36, align 8
  %37 = load i32, ptr @hf_pcapng_timestamp, align 4
  %38 = call ptr @proto_tree_add_time(ptr noundef %0, i32 noundef %37, ptr noundef %2, i32 noundef %3, i32 noundef 8, ptr noundef nonnull %7)
  %.not.i = icmp eq ptr %38, null
  br i1 %.not.i, label %proto_item_set_generated.exit, label %39

39:                                               ; preds = %23
  %40 = getelementptr inbounds nuw i8, ptr %38, i64 40
  %41 = load ptr, ptr %40, align 8
  %.not5.i = icmp eq ptr %41, null
  br i1 %.not5.i, label %proto_item_set_generated.exit, label %42

42:                                               ; preds = %39
  %43 = getelementptr inbounds nuw i8, ptr %41, i64 28
  %44 = load i32, ptr %43, align 4
  %45 = or i32 %44, 2
  store i32 %45, ptr %43, align 4
  br label %proto_item_set_generated.exit

proto_item_set_generated.exit:                    ; preds = %23, %39, %42
  %46 = getelementptr inbounds nuw i8, ptr %1, i64 24
  call void @llvm.memcpy.p0.p0.i64(ptr noundef nonnull align 8 dereferenceable(16) %46, ptr noundef nonnull align 8 dereferenceable(16) %7, i64 16, i1 false)
  br label %47

47:                                               ; preds = %proto_item_set_generated.exit, %19
  call void @llvm.lifetime.end.p0(i64 16, ptr nonnull %7) #9
  br label %48

48:                                               ; preds = %47, %6
  ret void
}